target datalayout = "e-m:e-p270:32:32-p271:32:32-p272:64:64-i64:64-i128:128-f80:128-n8:16:32:64-S128"
target triple = "x86_64-pc-linux-gnu"

; Function Attrs: nounwind uwtable
define i32 @get_n_bits_from_table(ptr noundef %0, i32 noundef %1, ptr noundef %2) #0 {
  %4 = alloca ptr, align 8
  %5 = alloca i32, align 4
  %6 = alloca ptr, align 8
  %7 = alloca i32, align 4
  %8 = alloca i32, align 4
  store ptr %0, ptr %4, align 8
  store i32 %1, ptr %5, align 4
  store ptr %2, ptr %6, align 8
  store i32 1, ptr %7, align 4
  %9 = load i32, ptr %5, align 4
  store i32 %9, ptr %8, align 4
  br label %10

10:                                               ; preds = %14, %3
  %11 = load i32, ptr %8, align 4
  %12 = add i32 %11, -1
  store i32 %12, ptr %8, align 4
  %13 = icmp ne i32 %11, 0
  br i1 %13, label %14, label %24

14:                                               ; preds = %10
  %15 = load i32, ptr %7, align 4
  %16 = mul i32 %15, 2
  %17 = load ptr, ptr %4, align 8
  %18 = load i32, ptr %7, align 4
  %19 = zext i32 %18 to i64
  %20 = getelementptr inbounds i16, ptr %17, i64 %19
  %21 = load ptr, ptr %6, align 8
  %22 = call i32 @getbit_from_table(ptr noundef %20, ptr noundef %21)
  %23 = add i32 %16, %22
  store i32 %23, ptr %7, align 4
  br label %10

24:                                               ; preds = %10
  %25 = load i32, ptr %7, align 4
  %26 = load i32, ptr %5, align 4
  %27 = and i32 %26, 255
  %28 = shl i32 1, %27
  %29 = sub i32 %25, %28
  ret i32 %29
}