; Function Attrs: nofree norecurse nosync nounwind memory(read, argmem: readwrite, inaccessiblemem: none) uwtable
define i32 @get_n_bits_from_table(ptr noundef %0, i32 noundef %1, ptr nocapture noundef %2) local_unnamed_addr #4 {
  %.not8 = icmp eq i32 %1, 0
  br i1 %.not8, label %._crit_edge, label %.lr.ph

.lr.ph:                                           ; preds = %3, %.lr.ph
  %.010 = phi i32 [ %4, %.lr.ph ], [ %1, %3 ]
  %.079 = phi i32 [ %9, %.lr.ph ], [ 1, %3 ]
  %4 = add i32 %.010, -1
  %5 = shl i32 %.079, 1
  %6 = zext i32 %.079 to i64
  %7 = getelementptr inbounds i16, ptr %0, i64 %6
  %8 = tail call i32 @getbit_from_table(ptr noundef %7, ptr noundef %2), !range !5
  %9 = add i32 %8, %5
  %.not = icmp eq i32 %4, 0
  br i1 %.not, label %._crit_edge, label %.lr.ph

._crit_edge:                                      ; preds = %.lr.ph, %3
  %.07.lcssa = phi i32 [ 1, %3 ], [ %9, %.lr.ph ]
  %10 = and i32 %1, 255
  %.neg = shl nsw i32 -1, %10
  %11 = add i32 %.07.lcssa, %.neg
  ret i32 %11
}